target datalayout = "e-m:e-p270:32:32-p271:32:32-p272:64:64-i64:64-i128:128-f80:128-n8:16:32:64-S128"
target triple = "x86_64-pc-linux-gnu"

%struct.AddressSpace = type { %struct.rcu_head, ptr, ptr, ptr, i32, i32, ptr, %union.anon, %union.anon.0, i64, i64, %struct.QemuMutex, %struct.anon }
%struct.rcu_head = type { ptr, ptr }
%union.anon = type { %struct.QTailQLink }
%struct.QTailQLink = type { ptr, ptr }
%union.anon.0 = type { %struct.QTailQLink }
%struct.QemuMutex = type { %union.pthread_mutex_t, i8 }
%union.pthread_mutex_t = type { %struct.__pthread_mutex_s }
%struct.__pthread_mutex_s = type { i32, i32, i32, i32, i32, i16, i16, %struct.__pthread_internal_list }
%struct.__pthread_internal_list = type { ptr, ptr }
%struct.anon = type { ptr }
%struct.VirtIOPCIProxy = type { %struct.PCIDevice, %struct.MemoryRegion, %union.anon.7, %struct.MemoryRegion, %struct.MemoryRegion, %struct.AddressSpace, %struct.AddressSpace, i32, i32, i32, i32, i32, i32, i8, i8, i32, i16, i32, i32, i32, i32, [2 x i32], [1024 x %struct.VirtIOPCIQueue], ptr, i32, %struct.VirtioBusState }
%struct.PCIDevice = type { %struct.DeviceState, i8, i8, ptr, ptr, ptr, ptr, ptr, i32, %struct.PCIReqIDCache, [64 x i8], [7 x %struct.PCIIORegion], %struct.AddressSpace, %struct.MemoryRegion, %struct.MemoryRegion, ptr, ptr, [3 x ptr], i8, i8, i32, i8, i32, ptr, ptr, ptr, ptr, ptr, ptr, %struct.MemoryRegion, %struct.MemoryRegion, %struct.MemoryRegion, ptr, i8, i32, i8, %struct.PCIExpressDevice, ptr, ptr, i32, i8, %struct.MemoryRegion, i32, ptr, ptr, ptr, ptr, i16, %struct.DOECap, ptr, i32, i32 }
%struct.DeviceState = type { %struct.Object, ptr, ptr, i8, i8, i64, i32, i8, ptr, %struct.NamedGPIOListHead, %struct.NamedClockListHead, %struct.BusStateHead, i32, i32, i32, %struct.ResettableState, ptr, %struct.MemReentrancyGuard }
%struct.Object = type { ptr, ptr, ptr, i32, ptr }
%struct.NamedGPIOListHead = type { ptr }
%struct.NamedClockListHead = type { ptr }
%struct.BusStateHead = type { ptr }
%struct.ResettableState = type { i32, i8, i8 }
%struct.MemReentrancyGuard = type { i8 }
%struct.PCIReqIDCache = type { ptr, i32 }
%struct.PCIIORegion = type { i64, i64, i8, ptr, ptr }
%struct.PCIExpressDevice = type { i8, i8, i8, i16, %struct.PCIEAERLog, i16, i16, i16, %struct.PCIESriovPF, %struct.PCIESriovVF }
%struct.PCIEAERLog = type { i16, i16, ptr }
%struct.PCIESriovPF = type { i16, [7 x i8], ptr, ptr }
%struct.PCIESriovVF = type { ptr, i16 }
%struct.DOECap = type { ptr, i16, %struct.anon.4, %struct.anon.5, %struct.anon.6, ptr, ptr, i32, i32, i32, ptr, i16, i32 }
%struct.anon.4 = type { i8, i16 }
%struct.anon.5 = type { i8, i8, i8 }
%struct.anon.6 = type { i8, i8, i8, i8 }
%union.anon.7 = type { %struct.anon.8 }
%struct.anon.8 = type { %struct.VirtIOPCIRegion, %struct.VirtIOPCIRegion, %struct.VirtIOPCIRegion, %struct.VirtIOPCIRegion, %struct.VirtIOPCIRegion }
%struct.VirtIOPCIRegion = type { %struct.MemoryRegion, i32, i32, i32 }
%struct.MemoryRegion = type { %struct.Object, i8, i8, i8, i8, i8, i8, i8, i8, i8, i8, ptr, ptr, ptr, ptr, ptr, ptr, i32, i128, i64, ptr, i64, i8, i8, i8, i8, ptr, i64, i32, %union.anon.1, %union.anon.2, %union.anon.3, ptr, i32, ptr, ptr, i8 }
%union.anon.1 = type { %struct.QTailQLink }
%union.anon.2 = type { %struct.QTailQLink }
%union.anon.3 = type { %struct.QTailQLink }
%struct.VirtIOPCIQueue = type { i16, i8, i8, [2 x i32], [2 x i32], [2 x i32] }
%struct.VirtioBusState = type { %struct.BusState, i8, i32 }
%struct.BusState = type { %struct.Object, ptr, ptr, ptr, i32, i8, i8, i32, %union.BusChildHead, %struct.BusStateEntry, %struct.ResettableState }
%union.BusChildHead = type { %struct.QTailQLink }
%struct.BusStateEntry = type { ptr, ptr }
%struct.ObjectClass = type { ptr, ptr, [4 x ptr], [4 x ptr], ptr, ptr }
%struct.VirtIODevice = type { %struct.DeviceState, ptr, i8, i8, i16, i64, i64, i64, i64, ptr, i16, i32, i32, ptr, %struct.MemoryListener, i16, i8, i8, i8, i8, i8, i8, i8, i8, i8, ptr, ptr, i8, i8, ptr, ptr, %union.anon.12, %struct.EventNotifier, i8 }
%struct.MemoryListener = type { ptr, ptr, ptr, ptr, ptr, ptr, ptr, ptr, ptr, ptr, ptr, ptr, ptr, ptr, ptr, ptr, ptr, i32, ptr, ptr, %union.anon.10, %union.anon.11 }
%union.anon.10 = type { %struct.QTailQLink }
%union.anon.11 = type { %struct.QTailQLink }
%union.anon.12 = type { %struct.QTailQLink }
%struct.EventNotifier = type { i32, i32, i8 }
%struct.VirtioDeviceClass = type { %struct.DeviceClass, ptr, ptr, ptr, ptr, ptr, ptr, ptr, ptr, ptr, ptr, ptr, ptr, i64, ptr, ptr, ptr, ptr, ptr, ptr, ptr, ptr, ptr, ptr, ptr, ptr }
%struct.DeviceClass = type { %struct.ObjectClass, [1 x i64], ptr, ptr, ptr, i16, i8, i8, ptr, ptr, ptr, ptr, ptr, ptr }
%struct.BusChild = type { %struct.rcu_head, ptr, i32, %union.anon.13 }
%union.anon.13 = type { %struct.QTailQLink }

@.str.42 = private unnamed_addr constant [14 x i8] c"virtio-device\00", align 1
@.str.43 = private unnamed_addr constant [105 x i8] c"/home/dtcxzyw/WorkSpace/Projects/compilers/llvm-opt-benchmark/bench/qemu/qemu/include/hw/virtio/virtio.h\00", align 1
@__func__.VIRTIO_DEVICE_GET_CLASS = private unnamed_addr constant [24 x i8] c"VIRTIO_DEVICE_GET_CLASS\00", align 1

; Function Attrs: nounwind sspstrong uwtable
define dso_local void @virtio_pci_set_guest_notifier_fd_handler(ptr noundef %0, ptr noundef %1, i32 noundef %2, i1 noundef zeroext %3, i1 noundef zeroext %4) #0 {
  %6 = alloca ptr, align 8
  %7 = alloca ptr, align 8
  %8 = alloca i32, align 4
  %9 = alloca i8, align 1
  %10 = alloca i8, align 1
  store ptr %0, ptr %6, align 8
  store ptr %1, ptr %7, align 8
  store i32 %2, ptr %8, align 4
  %11 = zext i1 %3 to i8
  store i8 %11, ptr %9, align 1
  %12 = zext i1 %4 to i8
  store i8 %12, ptr %10, align 1
  %13 = load i32, ptr %8, align 4
  %14 = icmp eq i32 %13, -1
  br i1 %14, label %15, label %21

15:                                               ; preds = %5
  %16 = load ptr, ptr %6, align 8
  %17 = load i8, ptr %9, align 1, !range !7, !noundef !8
  %18 = trunc i8 %17 to i1
  %19 = load i8, ptr %10, align 1, !range !7, !noundef !8
  %20 = trunc i8 %19 to i1
  call void @virtio_config_set_guest_notifier_fd_handler(ptr noundef %16, i1 noundef zeroext %18, i1 noundef zeroext %20)
  br label %27

21:                                               ; preds = %5
  %22 = load ptr, ptr %7, align 8
  %23 = load i8, ptr %9, align 1, !range !7, !noundef !8
  %24 = trunc i8 %23 to i1
  %25 = load i8, ptr %10, align 1, !range !7, !noundef !8
  %26 = trunc i8 %25 to i1
  call void @virtio_queue_set_guest_notifier_fd_handler(ptr noundef %22, i1 noundef zeroext %24, i1 noundef zeroext %26)
  br label %27

27:                                               ; preds = %21, %15
  ret void
}

; Function Attrs: inlinehint nounwind sspstrong uwtable
define internal ptr @VIRTIO_DEVICE_GET_CLASS(ptr noundef %0) #4 {
  %2 = alloca ptr, align 8
  store ptr %0, ptr %2, align 8
  %3 = load ptr, ptr %2, align 8
  %4 = call ptr @object_get_class(ptr noundef %3)
  %5 = call ptr @object_class_dynamic_cast_assert(ptr noundef %4, ptr noundef @.str.42, ptr noundef @.str.43, i32 noundef 88, ptr noundef @__func__.VIRTIO_DEVICE_GET_CLASS)
  ret ptr %5
}

; Function Attrs: inlinehint nounwind sspstrong uwtable
define internal ptr @virtio_bus_get_device(ptr noundef %0) #4 {
  %2 = alloca ptr, align 8
  %3 = alloca ptr, align 8
  %4 = alloca ptr, align 8
  %5 = alloca ptr, align 8
  store ptr %0, ptr %2, align 8
  call void @llvm.lifetime.start.p0(i64 8, ptr %3) #13
  %6 = load ptr, ptr %2, align 8
  %7 = getelementptr inbounds nuw %struct.VirtioBusState, ptr %6, i32 0, i32 0
  store ptr %7, ptr %3, align 8
  call void @llvm.lifetime.start.p0(i64 8, ptr %4) #13
  %8 = load ptr, ptr %3, align 8
  %9 = getelementptr inbounds nuw %struct.BusState, ptr %8, i32 0, i32 8
  %10 = load ptr, ptr %9, align 8
  store ptr %10, ptr %4, align 8
  call void @llvm.lifetime.start.p0(i64 8, ptr %5) #13
  %11 = load ptr, ptr %4, align 8
  %12 = icmp ne ptr %11, null
  br i1 %12, label %13, label %17

13:                                               ; preds = %1
  %14 = load ptr, ptr %4, align 8
  %15 = getelementptr inbounds nuw %struct.BusChild, ptr %14, i32 0, i32 1
  %16 = load ptr, ptr %15, align 8
  br label %18

17:                                               ; preds = %1
  br label %18

18:                                               ; preds = %17, %13
  %19 = phi ptr [ %16, %13 ], [ null, %17 ]
  store ptr %19, ptr %5, align 8
  %20 = load ptr, ptr %5, align 8
  call void @llvm.lifetime.end.p0(i64 8, ptr %5) #13
  call void @llvm.lifetime.end.p0(i64 8, ptr %4) #13
  call void @llvm.lifetime.end.p0(i64 8, ptr %3) #13
  ret ptr %20
}

; Function Attrs: inlinehint nounwind sspstrong uwtable
define internal ptr @to_virtio_pci_proxy(ptr noundef %0) #4 {
  %2 = alloca ptr, align 8
  %3 = alloca ptr, align 8
  %4 = alloca ptr, align 8
  store ptr %0, ptr %2, align 8
  call void @llvm.lifetime.start.p0(i64 8, ptr %3) #13
  %5 = load ptr, ptr %2, align 8
  store ptr %5, ptr %3, align 8
  %6 = load ptr, ptr %3, align 8
  %7 = getelementptr inbounds i8, ptr %6, i64 0
  store ptr %7, ptr %4, align 8
  call void @llvm.lifetime.end.p0(i64 8, ptr %3) #13
  %8 = load ptr, ptr %4, align 8
  ret ptr %8
}

; Function Attrs: nounwind sspstrong uwtable
define internal i32 @virtio_pci_set_guest_notifier(ptr noundef %0, i32 noundef %1, i1 noundef zeroext %2, i1 noundef zeroext %3) #0 {
  %5 = alloca i32, align 4
  %6 = alloca ptr, align 8
  %7 = alloca i32, align 4
  %8 = alloca i8, align 1
  %9 = alloca i8, align 1
  %10 = alloca ptr, align 8
  %11 = alloca ptr, align 8
  %12 = alloca ptr, align 8
  %13 = alloca ptr, align 8
  %14 = alloca ptr, align 8
  %15 = alloca i32, align 4
  %16 = alloca i32, align 4
  store ptr %0, ptr %6, align 8
  store i32 %1, ptr %7, align 4
  %17 = zext i1 %2 to i8
  store i8 %17, ptr %8, align 1
  %18 = zext i1 %3 to i8
  store i8 %18, ptr %9, align 1
  call void @llvm.lifetime.start.p0(i64 8, ptr %10) #13
  %19 = load ptr, ptr %6, align 8
  %20 = call ptr @to_virtio_pci_proxy(ptr noundef %19)
  store ptr %20, ptr %10, align 8
  call void @llvm.lifetime.start.p0(i64 8, ptr %11) #13
  %21 = load ptr, ptr %10, align 8
  %22 = getelementptr inbounds nuw %struct.VirtIOPCIProxy, ptr %21, i32 0, i32 25
  %23 = call ptr @virtio_bus_get_device(ptr noundef %22)
  store ptr %23, ptr %11, align 8
  call void @llvm.lifetime.start.p0(i64 8, ptr %12) #13
  %24 = load ptr, ptr %11, align 8
  %25 = call ptr @VIRTIO_DEVICE_GET_CLASS(ptr noundef %24)
  store ptr %25, ptr %12, align 8
  call void @llvm.lifetime.start.p0(i64 8, ptr %13) #13
  store ptr null, ptr %13, align 8
  call void @llvm.lifetime.start.p0(i64 8, ptr %14) #13
  store ptr null, ptr %14, align 8
  %26 = load i32, ptr %7, align 4
  %27 = icmp eq i32 %26, -1
  br i1 %27, label %28, label %31

28:                                               ; preds = %4
  %29 = load ptr, ptr %11, align 8
  %30 = call ptr @virtio_config_get_guest_notifier(ptr noundef %29)
  store ptr %30, ptr %14, align 8
  br label %37

31:                                               ; preds = %4
  %32 = load ptr, ptr %11, align 8
  %33 = load i32, ptr %7, align 4
  %34 = call ptr @virtio_get_queue(ptr noundef %32, i32 noundef %33)
  store ptr %34, ptr %13, align 8
  %35 = load ptr, ptr %13, align 8
  %36 = call ptr @virtio_queue_get_guest_notifier(ptr noundef %35)
  store ptr %36, ptr %14, align 8
  br label %37

37:                                               ; preds = %31, %28
  %38 = load i8, ptr %8, align 1, !range !7, !noundef !8
  %39 = trunc i8 %38 to i1
  br i1 %39, label %40, label %56

40:                                               ; preds = %37
  call void @llvm.lifetime.start.p0(i64 4, ptr %15) #13
  %41 = load ptr, ptr %14, align 8
  %42 = call i32 @event_notifier_init(ptr noundef %41, i32 noundef 0)
  store i32 %42, ptr %15, align 4
  %43 = load i32, ptr %15, align 4
  %44 = icmp slt i32 %43, 0
  br i1 %44, label %45, label %47

45:                                               ; preds = %40
  %46 = load i32, ptr %15, align 4
  store i32 %46, ptr %5, align 4
  store i32 1, ptr %16, align 4
  br label %53

47:                                               ; preds = %40
  %48 = load ptr, ptr %11, align 8
  %49 = load ptr, ptr %13, align 8
  %50 = load i32, ptr %7, align 4
  %51 = load i8, ptr %9, align 1, !range !7, !noundef !8
  %52 = trunc i8 %51 to i1
  call void @virtio_pci_set_guest_notifier_fd_handler(ptr noundef %48, ptr noundef %49, i32 noundef %50, i1 noundef zeroext true, i1 noundef zeroext %52)
  store i32 0, ptr %16, align 4
  br label %53

53:                                               ; preds = %47, %45
  call void @llvm.lifetime.end.p0(i64 4, ptr %15) #13
  %54 = load i32, ptr %16, align 4
  switch i32 %54, label %88 [
    i32 0, label %55
  ]

55:                                               ; preds = %53
  br label %63

56:                                               ; preds = %37
  %57 = load ptr, ptr %11, align 8
  %58 = load ptr, ptr %13, align 8
  %59 = load i32, ptr %7, align 4
  %60 = load i8, ptr %9, align 1, !range !7, !noundef !8
  %61 = trunc i8 %60 to i1
  call void @virtio_pci_set_guest_notifier_fd_handler(ptr noundef %57, ptr noundef %58, i32 noundef %59, i1 noundef zeroext false, i1 noundef zeroext %61)
  %62 = load ptr, ptr %14, align 8
  call void @event_notifier_cleanup(ptr noundef %62)
  br label %63

63:                                               ; preds = %56, %55
  %64 = load ptr, ptr %10, align 8
  %65 = getelementptr inbounds nuw %struct.VirtIOPCIProxy, ptr %64, i32 0, i32 0
  %66 = call i32 @msix_enabled(ptr noundef %65)
  %67 = icmp ne i32 %66, 0
  br i1 %67, label %87, label %68

68:                                               ; preds = %63
  %69 = load ptr, ptr %11, align 8
  %70 = getelementptr inbounds nuw %struct.VirtIODevice, ptr %69, i32 0, i32 28
  %71 = load i8, ptr %70, align 1, !range !7, !noundef !8
  %72 = trunc i8 %71 to i1
  br i1 %72, label %73, label %87

73:                                               ; preds = %68
  %74 = load ptr, ptr %12, align 8
  %75 = getelementptr inbounds nuw %struct.VirtioDeviceClass, ptr %74, i32 0, i32 15
  %76 = load ptr, ptr %75, align 8
  %77 = icmp ne ptr %76, null
  br i1 %77, label %78, label %87

78:                                               ; preds = %73
  %79 = load ptr, ptr %12, align 8
  %80 = getelementptr inbounds nuw %struct.VirtioDeviceClass, ptr %79, i32 0, i32 15
  %81 = load ptr, ptr %80, align 8
  %82 = load ptr, ptr %11, align 8
  %83 = load i32, ptr %7, align 4
  %84 = load i8, ptr %8, align 1, !range !7, !noundef !8
  %85 = trunc i8 %84 to i1
  %86 = xor i1 %85, true
  call void %81(ptr noundef %82, i32 noundef %83, i1 noundef zeroext %86)
  br label %87

87:                                               ; preds = %78, %73, %68, %63
  store i32 0, ptr %5, align 4
  store i32 1, ptr %16, align 4
  br label %88

88:                                               ; preds = %87, %53
  call void @llvm.lifetime.end.p0(i64 8, ptr %14) #13
  call void @llvm.lifetime.end.p0(i64 8, ptr %13) #13
  call void @llvm.lifetime.end.p0(i64 8, ptr %12) #13
  call void @llvm.lifetime.end.p0(i64 8, ptr %11) #13
  call void @llvm.lifetime.end.p0(i64 8, ptr %10) #13
  %89 = load i32, ptr %5, align 4
  ret i32 %89
}