; Function Attrs: nounwind sspstrong uwtable
define internal fastcc range(i32 -2147483648, 1) i32 @virtio_pci_set_guest_notifier(ptr noundef %0, i32 noundef %1, i1 noundef zeroext %2, i1 noundef zeroext %3) unnamed_addr #0 {
  %5 = getelementptr i8, ptr %0, i64 34160
  %.val = load ptr, ptr %5, align 8
  %.not.i = icmp eq ptr %.val, null
  br i1 %.not.i, label %virtio_bus_get_device.exit, label %6

6:                                                ; preds = %4
  %7 = getelementptr inbounds nuw i8, ptr %.val, i64 16
  %8 = load ptr, ptr %7, align 8
  br label %virtio_bus_get_device.exit

virtio_bus_get_device.exit:                       ; preds = %4, %6
  %9 = phi ptr [ %8, %6 ], [ null, %4 ]
  %10 = tail call ptr @object_get_class(ptr noundef %9) #15
  %11 = tail call ptr @object_class_dynamic_cast_assert(ptr noundef %10, ptr noundef nonnull @.str.42, ptr noundef nonnull @.str.43, i32 noundef 88, ptr noundef nonnull @__func__.VIRTIO_DEVICE_GET_CLASS) #15
  %12 = icmp eq i32 %1, -1
  br i1 %12, label %13, label %.thread

13:                                               ; preds = %virtio_bus_get_device.exit
  %14 = tail call ptr @virtio_config_get_guest_notifier(ptr noundef %9) #15
  br i1 %2, label %17, label %24

.thread:                                          ; preds = %virtio_bus_get_device.exit
  %15 = tail call ptr @virtio_get_queue(ptr noundef %9, i32 noundef %1) #15
  %16 = tail call ptr @virtio_queue_get_guest_notifier(ptr noundef %15) #15
  br i1 %2, label %.thread48, label %.thread42

17:                                               ; preds = %13
  %18 = tail call i32 @event_notifier_init(ptr noundef %14, i32 noundef 0) #15
  %19 = icmp sgt i32 %18, -1
  br i1 %19, label %22, label %.critedge

.thread48:                                        ; preds = %.thread
  %20 = tail call i32 @event_notifier_init(ptr noundef %16, i32 noundef 0) #15
  %21 = icmp sgt i32 %20, -1
  br i1 %21, label %23, label %.critedge

22:                                               ; preds = %17
  tail call void @virtio_config_set_guest_notifier_fd_handler(ptr noundef %9, i1 noundef zeroext true, i1 noundef zeroext %3) #15
  br label %virtio_pci_set_guest_notifier_fd_handler.exit

23:                                               ; preds = %.thread48
  tail call void @virtio_queue_set_guest_notifier_fd_handler(ptr noundef %15, i1 noundef zeroext true, i1 noundef zeroext %3) #15
  br label %virtio_pci_set_guest_notifier_fd_handler.exit

24:                                               ; preds = %13
  tail call void @virtio_config_set_guest_notifier_fd_handler(ptr noundef %9, i1 noundef zeroext false, i1 noundef zeroext %3) #15
  br label %virtio_pci_set_guest_notifier_fd_handler.exit35

.thread42:                                        ; preds = %.thread
  tail call void @virtio_queue_set_guest_notifier_fd_handler(ptr noundef %15, i1 noundef zeroext false, i1 noundef zeroext %3) #15
  br label %virtio_pci_set_guest_notifier_fd_handler.exit35

virtio_pci_set_guest_notifier_fd_handler.exit35:  ; preds = %24, %.thread42
  %.0304145 = phi ptr [ %14, %24 ], [ %16, %.thread42 ]
  tail call void @event_notifier_cleanup(ptr noundef %.0304145) #15
  br label %virtio_pci_set_guest_notifier_fd_handler.exit

virtio_pci_set_guest_notifier_fd_handler.exit:    ; preds = %23, %22, %virtio_pci_set_guest_notifier_fd_handler.exit35
  %25 = tail call i32 @msix_enabled(ptr noundef nonnull %0) #15
  %.not = icmp eq i32 %25, 0
  br i1 %.not, label %26, label %.critedge

26:                                               ; preds = %virtio_pci_set_guest_notifier_fd_handler.exit
  %27 = getelementptr inbounds nuw i8, ptr %9, i64 457
  %28 = load i8, ptr %27, align 1, !range !7, !noundef !6
  %29 = trunc nuw i8 %28 to i1
  br i1 %29, label %30, label %.critedge

30:                                               ; preds = %26
  %31 = getelementptr inbounds nuw i8, ptr %11, i64 296
  %32 = load ptr, ptr %31, align 8
  %.not34 = icmp eq ptr %32, null
  br i1 %.not34, label %.critedge, label %33

33:                                               ; preds = %30
  %34 = xor i1 %2, true
  tail call void %32(ptr noundef nonnull %9, i32 noundef %1, i1 noundef zeroext %34) #15
  br label %.critedge

.critedge:                                        ; preds = %.thread48, %17, %virtio_pci_set_guest_notifier_fd_handler.exit, %26, %30, %33
  %.1 = phi i32 [ 0, %33 ], [ 0, %30 ], [ 0, %26 ], [ 0, %virtio_pci_set_guest_notifier_fd_handler.exit ], [ %18, %17 ], [ %20, %.thread48 ]
  ret i32 %.1
}